; Function Attrs: mustprogress uwtable
define void @_ZN3zmq8thread_t23setSchedulingParametersEiiRKSt3setIiSt4lessIiESaIiEE(ptr noundef nonnull align 8 dereferenceable(104) initializes((48, 56)) %0, i32 noundef %1, i32 noundef %2, ptr noundef nonnull align 8 dereferenceable(48) %3) local_unnamed_addr #1 align 2 {
  %5 = getelementptr inbounds nuw i8, ptr %0, i64 48
  store i32 %1, ptr %5, align 8, !tbaa !30
  %6 = getelementptr inbounds nuw i8, ptr %0, i64 52
  store i32 %2, ptr %6, align 4, !tbaa !31
  %7 = getelementptr inbounds nuw i8, ptr %0, i64 56
  %8 = tail call noundef nonnull align 8 dereferenceable(48) ptr @_ZNSt8_Rb_treeIiiSt9_IdentityIiESt4lessIiESaIiEEaSERKS5_(ptr noundef nonnull align 8 dereferenceable(48) %7, ptr noundef nonnull align 8 dereferenceable(48) %3)
  ret void
}